; Function Attrs: nofree norecurse nosync nounwind memory(argmem: read) uwtable
define hidden zeroext i1 @lexbor_str_data_ncasecmp(ptr nocapture noundef readonly %0, ptr nocapture noundef readonly %1, i64 noundef %2) local_unnamed_addr #8 {
  %4 = icmp eq i64 %2, 0
  br i1 %4, label %._crit_edge, label %.lr.ph.preheader

.lr.ph.preheader:                                 ; preds = %3
  %5 = load i8, ptr %0, align 1
  %6 = zext i8 %5 to i64
  %7 = getelementptr inbounds [256 x i8], ptr @lexbor_str_res_map_lowercase, i64 0, i64 %6
  %8 = load i8, ptr %7, align 1
  %9 = load i8, ptr %1, align 1
  %10 = zext i8 %9 to i64
  %11 = getelementptr inbounds [256 x i8], ptr @lexbor_str_res_map_lowercase, i64 0, i64 %10
  %12 = load i8, ptr %11, align 1
  %.not11 = icmp eq i8 %8, %12
  br i1 %.not11, label %.lr.ph13, label %._crit_edge

.lr.ph13:                                         ; preds = %.lr.ph.preheader, %.lr.ph
  %.0812 = phi i64 [ %13, %.lr.ph ], [ 0, %.lr.ph.preheader ]
  %13 = add nuw i64 %.0812, 1
  %exitcond = icmp eq i64 %13, %2
  br i1 %exitcond, label %._crit_edge.loopexit, label %.lr.ph

.lr.ph:                                           ; preds = %.lr.ph13
  %14 = getelementptr inbounds i8, ptr %0, i64 %13
  %15 = load i8, ptr %14, align 1
  %16 = zext i8 %15 to i64
  %17 = getelementptr inbounds [256 x i8], ptr @lexbor_str_res_map_lowercase, i64 0, i64 %16
  %18 = load i8, ptr %17, align 1
  %19 = getelementptr inbounds i8, ptr %1, i64 %13
  %20 = load i8, ptr %19, align 1
  %21 = zext i8 %20 to i64
  %22 = getelementptr inbounds [256 x i8], ptr @lexbor_str_res_map_lowercase, i64 0, i64 %21
  %23 = load i8, ptr %22, align 1
  %.not = icmp eq i8 %18, %23
  br i1 %.not, label %.lr.ph13, label %._crit_edge.loopexit

._crit_edge.loopexit:                             ; preds = %.lr.ph, %.lr.ph13
  %24 = icmp uge i64 %13, %2
  br label %._crit_edge

._crit_edge:                                      ; preds = %._crit_edge.loopexit, %.lr.ph.preheader, %3
  %.lcssa = phi i1 [ true, %3 ], [ false, %.lr.ph.preheader ], [ %24, %._crit_edge.loopexit ]
  ret i1 %.lcssa
}